; Function Attrs: mustprogress nofree norecurse nosync nounwind willreturn memory(argmem: read) uwtable
define <2 x float> @_ZNK11b2GearJoint16GetReactionForceEf(ptr nocapture noundef nonnull readonly align 8 dereferenceable(356) %this, float noundef %inv_dt) unnamed_addr #6 align 2 {
entry:
  %m_impulse = getelementptr inbounds i8, ptr %this, i64 236
  %0 = load <4 x float>, ptr %m_impulse, align 4
  %m_JvAC = getelementptr inbounds i8, ptr %this, i64 320
  %1 = load <2 x float>, ptr %m_JvAC, align 8
  %2 = shufflevector <4 x float> %0, <4 x float> poison, <2 x i32> zeroinitializer
  %3 = fmul <2 x float> %2, %1
  %4 = insertelement <2 x float> poison, float %inv_dt, i64 0
  %5 = shufflevector <2 x float> %4, <2 x float> poison, <2 x i32> zeroinitializer
  %6 = fmul <2 x float> %3, %5
  ret <2 x float> %6
}